target datalayout = "e-m:e-p270:32:32-p271:32:32-p272:64:64-i64:64-i128:128-f80:128-n8:16:32:64-S128"
target triple = "x86_64-pc-linux-gnu"

%struct.MvcCoverStruct = type { i32, i32, i32, %struct.MvcListStruct, ptr, i32, ptr, ptr, ptr }
%struct.MvcListStruct = type { ptr, ptr, i32 }
%struct.MvcCubeStruct = type { ptr, i32, i32, [1 x i32] }

; Function Attrs: nounwind uwtable
define i32 @Mvc_CoverAnyLiteral(ptr noundef %0, ptr noundef %1) #0 {
  %3 = alloca i32, align 4
  %4 = alloca ptr, align 8
  %5 = alloca ptr, align 8
  %6 = alloca ptr, align 8
  %7 = alloca i32, align 4
  %8 = alloca i32, align 4
  %9 = alloca i32, align 4
  %10 = alloca i32, align 4
  %11 = alloca i32, align 4
  store ptr %0, ptr %4, align 8
  store ptr %1, ptr %5, align 8
  store i32 0, ptr %11, align 4
  %12 = load i32, ptr %11, align 4
  %13 = icmp ne i32 %12, 0
  br i1 %13, label %14, label %79

14:                                               ; preds = %2
  store i32 0, ptr %9, align 4
  br label %15

15:                                               ; preds = %75, %14
  %16 = load i32, ptr %9, align 4
  %17 = load ptr, ptr %4, align 8
  %18 = getelementptr inbounds %struct.MvcCoverStruct, ptr %17, i32 0, i32 2
  %19 = load i32, ptr %18, align 8
  %20 = icmp slt i32 %16, %19
  br i1 %20, label %21, label %78

21:                                               ; preds = %15
  %22 = load ptr, ptr %5, align 8
  %23 = icmp ne ptr %22, null
  br i1 %23, label %24, label %37

24:                                               ; preds = %21
  %25 = load ptr, ptr %5, align 8
  %26 = getelementptr inbounds %struct.MvcCubeStruct, ptr %25, i32 0, i32 3
  %27 = load i32, ptr %9, align 4
  %28 = ashr i32 %27, 5
  %29 = sext i32 %28 to i64
  %30 = getelementptr inbounds [1 x i32], ptr %26, i64 0, i64 %29
  %31 = load i32, ptr %30, align 4
  %32 = load i32, ptr %9, align 4
  %33 = and i32 %32, 31
  %34 = shl i32 1, %33
  %35 = and i32 %31, %34
  %36 = icmp ugt i32 %35, 0
  br i1 %36, label %37, label %74

37:                                               ; preds = %24, %21
  %38 = load i32, ptr %9, align 4
  %39 = ashr i32 %38, 5
  store i32 %39, ptr %7, align 4
  %40 = load i32, ptr %9, align 4
  %41 = and i32 %40, 31
  store i32 %41, ptr %8, align 4
  store i32 0, ptr %10, align 4
  %42 = load ptr, ptr %4, align 8
  %43 = getelementptr inbounds %struct.MvcCoverStruct, ptr %42, i32 0, i32 3
  %44 = getelementptr inbounds %struct.MvcListStruct, ptr %43, i32 0, i32 0
  %45 = load ptr, ptr %44, align 8
  store ptr %45, ptr %6, align 8
  br label %46

46:                                               ; preds = %69, %37
  %47 = load ptr, ptr %6, align 8
  %48 = icmp ne ptr %47, null
  br i1 %48, label %49, label %73

49:                                               ; preds = %46
  %50 = load ptr, ptr %6, align 8
  %51 = getelementptr inbounds %struct.MvcCubeStruct, ptr %50, i32 0, i32 3
  %52 = load i32, ptr %7, align 4
  %53 = sext i32 %52 to i64
  %54 = getelementptr inbounds [1 x i32], ptr %51, i64 0, i64 %53
  %55 = load i32, ptr %54, align 4
  %56 = load i32, ptr %8, align 4
  %57 = shl i32 1, %56
  %58 = and i32 %55, %57
  %59 = icmp ne i32 %58, 0
  br i1 %59, label %60, label %68

60:                                               ; preds = %49
  %61 = load i32, ptr %10, align 4
  %62 = add nsw i32 %61, 1
  store i32 %62, ptr %10, align 4
  %63 = load i32, ptr %10, align 4
  %64 = icmp sgt i32 %63, 1
  br i1 %64, label %65, label %67

65:                                               ; preds = %60
  %66 = load i32, ptr %9, align 4
  store i32 %66, ptr %3, align 4
  br label %146

67:                                               ; preds = %60
  br label %68

68:                                               ; preds = %67, %49
  br label %69

69:                                               ; preds = %68
  %70 = load ptr, ptr %6, align 8
  %71 = getelementptr inbounds %struct.MvcCubeStruct, ptr %70, i32 0, i32 0
  %72 = load ptr, ptr %71, align 8
  store ptr %72, ptr %6, align 8
  br label %46, !llvm.loop !4

73:                                               ; preds = %46
  br label %74

74:                                               ; preds = %73, %24
  br label %75

75:                                               ; preds = %74
  %76 = load i32, ptr %9, align 4
  %77 = add nsw i32 %76, 1
  store i32 %77, ptr %9, align 4
  br label %15, !llvm.loop !6

78:                                               ; preds = %15
  br label %145

79:                                               ; preds = %2
  %80 = load ptr, ptr %4, align 8
  %81 = getelementptr inbounds %struct.MvcCoverStruct, ptr %80, i32 0, i32 2
  %82 = load i32, ptr %81, align 8
  %83 = sub nsw i32 %82, 1
  store i32 %83, ptr %9, align 4
  br label %84

84:                                               ; preds = %141, %79
  %85 = load i32, ptr %9, align 4
  %86 = icmp sge i32 %85, 0
  br i1 %86, label %87, label %144

87:                                               ; preds = %84
  %88 = load ptr, ptr %5, align 8
  %89 = icmp ne ptr %88, null
  br i1 %89, label %90, label %103

90:                                               ; preds = %87
  %91 = load ptr, ptr %5, align 8
  %92 = getelementptr inbounds %struct.MvcCubeStruct, ptr %91, i32 0, i32 3
  %93 = load i32, ptr %9, align 4
  %94 = ashr i32 %93, 5
  %95 = sext i32 %94 to i64
  %96 = getelementptr inbounds [1 x i32], ptr %92, i64 0, i64 %95
  %97 = load i32, ptr %96, align 4
  %98 = load i32, ptr %9, align 4
  %99 = and i32 %98, 31
  %100 = shl i32 1, %99
  %101 = and i32 %97, %100
  %102 = icmp ugt i32 %101, 0
  br i1 %102, label %103, label %140

103:                                              ; preds = %90, %87
  %104 = load i32, ptr %9, align 4
  %105 = ashr i32 %104, 5
  store i32 %105, ptr %7, align 4
  %106 = load i32, ptr %9, align 4
  %107 = and i32 %106, 31
  store i32 %107, ptr %8, align 4
  store i32 0, ptr %10, align 4
  %108 = load ptr, ptr %4, align 8
  %109 = getelementptr inbounds %struct.MvcCoverStruct, ptr %108, i32 0, i32 3
  %110 = getelementptr inbounds %struct.MvcListStruct, ptr %109, i32 0, i32 0
  %111 = load ptr, ptr %110, align 8
  store ptr %111, ptr %6, align 8
  br label %112

112:                                              ; preds = %135, %103
  %113 = load ptr, ptr %6, align 8
  %114 = icmp ne ptr %113, null
  br i1 %114, label %115, label %139

115:                                              ; preds = %112
  %116 = load ptr, ptr %6, align 8
  %117 = getelementptr inbounds %struct.MvcCubeStruct, ptr %116, i32 0, i32 3
  %118 = load i32, ptr %7, align 4
  %119 = sext i32 %118 to i64
  %120 = getelementptr inbounds [1 x i32], ptr %117, i64 0, i64 %119
  %121 = load i32, ptr %120, align 4
  %122 = load i32, ptr %8, align 4
  %123 = shl i32 1, %122
  %124 = and i32 %121, %123
  %125 = icmp ne i32 %124, 0
  br i1 %125, label %126, label %134

126:                                              ; preds = %115
  %127 = load i32, ptr %10, align 4
  %128 = add nsw i32 %127, 1
  store i32 %128, ptr %10, align 4
  %129 = load i32, ptr %10, align 4
  %130 = icmp sgt i32 %129, 1
  br i1 %130, label %131, label %133

131:                                              ; preds = %126
  %132 = load i32, ptr %9, align 4
  store i32 %132, ptr %3, align 4
  br label %146

133:                                              ; preds = %126
  br label %134

134:                                              ; preds = %133, %115
  br label %135

135:                                              ; preds = %134
  %136 = load ptr, ptr %6, align 8
  %137 = getelementptr inbounds %struct.MvcCubeStruct, ptr %136, i32 0, i32 0
  %138 = load ptr, ptr %137, align 8
  store ptr %138, ptr %6, align 8
  br label %112, !llvm.loop !7

139:                                              ; preds = %112
  br label %140

140:                                              ; preds = %139, %90
  br label %141

141:                                              ; preds = %140
  %142 = load i32, ptr %9, align 4
  %143 = add nsw i32 %142, -1
  store i32 %143, ptr %9, align 4
  br label %84, !llvm.loop !8

144:                                              ; preds = %84
  br label %145

145:                                              ; preds = %144, %78
  store i32 -1, ptr %3, align 4
  br label %146

146:                                              ; preds = %145, %131, %65
  %147 = load i32, ptr %3, align 4
  ret i32 %147
}